target datalayout = "e-m:e-p270:32:32-p271:32:32-p272:64:64-i64:64-i128:128-f80:128-n8:16:32:64-S128"
target triple = "x86_64-pc-linux-gnu"

%struct.STBIR_RESIZE = type { ptr, ptr, i32, i32, double, double, double, double, ptr, ptr, i32, i32, i32, i32, i32, i32, ptr, i32, i32, i32, i32, i32, i32, i32, i32, i32, i32, i32, i32, i32, i32, ptr, ptr, ptr, ptr, ptr }

; Function Attrs: nounwind uwtable
define void @stbir_set_datatypes(ptr noundef %0, i32 noundef %1, i32 noundef %2) #3 {
  %4 = alloca ptr, align 8
  %5 = alloca i32, align 4
  %6 = alloca i32, align 4
  store ptr %0, ptr %4, align 8, !tbaa !1068
  store i32 %1, ptr %5, align 4, !tbaa !26
  store i32 %2, ptr %6, align 4, !tbaa !26
  %7 = load i32, ptr %5, align 4, !tbaa !26
  %8 = load ptr, ptr %4, align 8, !tbaa !1068
  %9 = getelementptr inbounds nuw %struct.STBIR_RESIZE, ptr %8, i32 0, i32 25
  store i32 %7, ptr %9, align 8, !tbaa !1070
  %10 = load i32, ptr %6, align 4, !tbaa !26
  %11 = load ptr, ptr %4, align 8, !tbaa !1068
  %12 = getelementptr inbounds nuw %struct.STBIR_RESIZE, ptr %11, i32 0, i32 26
  store i32 %10, ptr %12, align 4, !tbaa !1072
  %13 = load ptr, ptr %4, align 8, !tbaa !1068
  %14 = getelementptr inbounds nuw %struct.STBIR_RESIZE, ptr %13, i32 0, i32 35
  %15 = load ptr, ptr %14, align 8, !tbaa !1082
  %16 = icmp ne ptr %15, null
  br i1 %16, label %17, label %27

17:                                               ; preds = %3
  %18 = load ptr, ptr %4, align 8, !tbaa !1068
  %19 = getelementptr inbounds nuw %struct.STBIR_RESIZE, ptr %18, i32 0, i32 21
  %20 = load i32, ptr %19, align 8, !tbaa !1104
  %21 = icmp ne i32 %20, 0
  br i1 %21, label %27, label %22

22:                                               ; preds = %17
  %23 = load ptr, ptr %4, align 8, !tbaa !1068
  %24 = getelementptr inbounds nuw %struct.STBIR_RESIZE, ptr %23, i32 0, i32 35
  %25 = load ptr, ptr %24, align 8, !tbaa !1082
  %26 = load ptr, ptr %4, align 8, !tbaa !1068
  call void @stbir__update_info_from_resize(ptr noundef %25, ptr noundef %26)
  br label %27

27:                                               ; preds = %22, %17, %3
  ret void
}