; Function Attrs: mustprogress nofree norecurse nosync nounwind willreturn memory(readwrite, inaccessiblemem: none) uwtable
define void @stbir_set_datatypes(ptr noundef captures(none) initializes((136, 144)) %0, i32 noundef %1, i32 noundef %2) local_unnamed_addr #17 {
  %4 = getelementptr inbounds nuw i8, ptr %0, i64 136
  store i32 %1, ptr %4, align 8, !tbaa !976
  %5 = getelementptr inbounds nuw i8, ptr %0, i64 140
  store i32 %2, ptr %5, align 4, !tbaa !979
  %6 = getelementptr inbounds nuw i8, ptr %0, i64 192
  %7 = load ptr, ptr %6, align 8, !tbaa !1005
  %.not = icmp eq ptr %7, null
  br i1 %.not, label %12, label %8

8:                                                ; preds = %3
  %9 = getelementptr inbounds nuw i8, ptr %0, i64 120
  %10 = load i32, ptr %9, align 8, !tbaa !1001
  %.not7 = icmp eq i32 %10, 0
  br i1 %.not7, label %11, label %12

11:                                               ; preds = %8
  tail call void @stbir__update_info_from_resize(ptr noundef nonnull %7, ptr noundef nonnull %0)
  br label %12

12:                                               ; preds = %11, %8, %3
  ret void
}